(dp0
S'tevrhok'
p1
(dp2
S'password'
p3
S'Antipode'
p4
ssS'kierlana'
p5
(dp6
S'password'
p7
S'antipode'
p8
ssS'enichi'
p9
(dp10
S'password'
p11
S'Antipode'
p12
ssS'rydia'
p13
(dp14
S'password'
p15
S'do you even'
p16
ssS'steven'
p17
(dp18
S'password'
p19
S'universe'
p20
ss.